target datalayout = "e-m:e-p270:32:32-p271:32:32-p272:64:64-i64:64-i128:128-f80:128-n8:16:32:64-S128"
target triple = "x86_64-pc-linux-gnu"

%"class.icu_77::number::impl::DecimalQuantity" = type <{ %"class.icu_77::IFixedDecimal", i8, [3 x i8], i32, i32, i8, i8, [2 x i8], double, i32, i32, i32, i32, %union.anon, i8, i8, [6 x i8] }>
%"class.icu_77::IFixedDecimal" = type { ptr }
%union.anon = type { %struct.anon }
%struct.anon = type { ptr, i32 }

; Function Attrs: mustprogress nounwind uwtable
define noundef signext i8 @_ZNK6icu_776number4impl15DecimalQuantity11getDigitPosEi(ptr noundef nonnull align 8 dereferenceable(66) %0, i32 noundef %1) #0 align 2 {
  %3 = alloca i8, align 1
  %4 = alloca ptr, align 8
  %5 = alloca i32, align 4
  store ptr %0, ptr %4, align 8, !tbaa !25
  store i32 %1, ptr %5, align 4, !tbaa !14
  %6 = load ptr, ptr %4, align 8
  %7 = getelementptr inbounds nuw %"class.icu_77::number::impl::DecimalQuantity", ptr %6, i32 0, i32 14
  %8 = load i8, ptr %7, align 8, !tbaa !37, !range !40, !noundef !41
  %9 = trunc i8 %8 to i1
  br i1 %9, label %10, label %27

10:                                               ; preds = %2
  %11 = load i32, ptr %5, align 4, !tbaa !14
  %12 = icmp slt i32 %11, 0
  br i1 %12, label %18, label %13

13:                                               ; preds = %10
  %14 = load i32, ptr %5, align 4, !tbaa !14
  %15 = getelementptr inbounds nuw %"class.icu_77::number::impl::DecimalQuantity", ptr %6, i32 0, i32 4
  %16 = load i32, ptr %15, align 8, !tbaa !44
  %17 = icmp sge i32 %14, %16
  br i1 %17, label %18, label %19

18:                                               ; preds = %13, %10
  store i8 0, ptr %3, align 1
  br label %43

19:                                               ; preds = %13
  %20 = getelementptr inbounds nuw %"class.icu_77::number::impl::DecimalQuantity", ptr %6, i32 0, i32 13
  %21 = getelementptr inbounds nuw %struct.anon, ptr %20, i32 0, i32 0
  %22 = load ptr, ptr %21, align 8, !tbaa !42
  %23 = load i32, ptr %5, align 4, !tbaa !14
  %24 = sext i32 %23 to i64
  %25 = getelementptr inbounds i8, ptr %22, i64 %24
  %26 = load i8, ptr %25, align 1, !tbaa !42
  store i8 %26, ptr %3, align 1
  br label %43

27:                                               ; preds = %2
  %28 = load i32, ptr %5, align 4, !tbaa !14
  %29 = icmp slt i32 %28, 0
  br i1 %29, label %33, label %30

30:                                               ; preds = %27
  %31 = load i32, ptr %5, align 4, !tbaa !14
  %32 = icmp sge i32 %31, 16
  br i1 %32, label %33, label %34

33:                                               ; preds = %30, %27
  store i8 0, ptr %3, align 1
  br label %43

34:                                               ; preds = %30
  %35 = getelementptr inbounds nuw %"class.icu_77::number::impl::DecimalQuantity", ptr %6, i32 0, i32 13
  %36 = load i64, ptr %35, align 8, !tbaa !42
  %37 = load i32, ptr %5, align 4, !tbaa !14
  %38 = mul nsw i32 %37, 4
  %39 = zext i32 %38 to i64
  %40 = lshr i64 %36, %39
  %41 = and i64 %40, 15
  %42 = trunc i64 %41 to i8
  store i8 %42, ptr %3, align 1
  br label %43

43:                                               ; preds = %34, %33, %19, %18
  %44 = load i8, ptr %3, align 1
  ret i8 %44
}

; Function Attrs: mustprogress uwtable
define noundef signext i8 @_ZNK6icu_776number4impl15DecimalQuantity8getDigitEi(ptr noundef nonnull align 8 dereferenceable(66) %0, i32 noundef %1) #1 align 2 {
  %3 = alloca ptr, align 8
  %4 = alloca i32, align 4
  store ptr %0, ptr %3, align 8, !tbaa !25
  store i32 %1, ptr %4, align 4, !tbaa !14
  %5 = load ptr, ptr %3, align 8
  %6 = load i32, ptr %4, align 4, !tbaa !14
  %7 = getelementptr inbounds nuw %"class.icu_77::number::impl::DecimalQuantity", ptr %5, i32 0, i32 3
  %8 = load i32, ptr %7, align 4, !tbaa !43
  %9 = sub nsw i32 %6, %8
  %10 = call noundef signext i8 @_ZNK6icu_776number4impl15DecimalQuantity11getDigitPosEi(ptr noundef nonnull align 8 dereferenceable(66) %5, i32 noundef %9)
  ret i8 %10
}

; Function Attrs: mustprogress nounwind uwtable
define noundef i32 @_ZNK6icu_776number4impl15DecimalQuantity24getLowerDisplayMagnitudeEv(ptr noundef nonnull align 8 dereferenceable(66) %0) #0 align 2 {
  %2 = alloca ptr, align 8
  %3 = alloca i32, align 4
  %4 = alloca i32, align 4
  store ptr %0, ptr %2, align 8, !tbaa !25
  %5 = load ptr, ptr %2, align 8
  call void @llvm.lifetime.start.p0(i64 4, ptr %3) #14
  %6 = getelementptr inbounds nuw %"class.icu_77::number::impl::DecimalQuantity", ptr %5, i32 0, i32 3
  %7 = load i32, ptr %6, align 4, !tbaa !43
  store i32 %7, ptr %3, align 4, !tbaa !14
  call void @llvm.lifetime.start.p0(i64 4, ptr %4) #14
  %8 = getelementptr inbounds nuw %"class.icu_77::number::impl::DecimalQuantity", ptr %5, i32 0, i32 11
  %9 = load i32, ptr %8, align 8, !tbaa !35
  %10 = load i32, ptr %3, align 4, !tbaa !14
  %11 = icmp slt i32 %9, %10
  br i1 %11, label %12, label %15

12:                                               ; preds = %1
  %13 = getelementptr inbounds nuw %"class.icu_77::number::impl::DecimalQuantity", ptr %5, i32 0, i32 11
  %14 = load i32, ptr %13, align 8, !tbaa !35
  br label %17

15:                                               ; preds = %1
  %16 = load i32, ptr %3, align 4, !tbaa !14
  br label %17

17:                                               ; preds = %15, %12
  %18 = phi i32 [ %14, %12 ], [ %16, %15 ]
  store i32 %18, ptr %4, align 4, !tbaa !14
  %19 = load i32, ptr %4, align 4, !tbaa !14
  call void @llvm.lifetime.end.p0(i64 4, ptr %4) #14
  call void @llvm.lifetime.end.p0(i64 4, ptr %3) #14
  ret i32 %19
}

; Function Attrs: mustprogress nounwind uwtable
define noundef i32 @_ZNK6icu_776number4impl15DecimalQuantity24getUpperDisplayMagnitudeEv(ptr noundef nonnull align 8 dereferenceable(66) %0) #0 align 2 {
  %2 = alloca ptr, align 8
  %3 = alloca i32, align 4
  %4 = alloca i32, align 4
  store ptr %0, ptr %2, align 8, !tbaa !25
  %5 = load ptr, ptr %2, align 8
  call void @llvm.lifetime.start.p0(i64 4, ptr %3) #14
  %6 = getelementptr inbounds nuw %"class.icu_77::number::impl::DecimalQuantity", ptr %5, i32 0, i32 3
  %7 = load i32, ptr %6, align 4, !tbaa !43
  %8 = getelementptr inbounds nuw %"class.icu_77::number::impl::DecimalQuantity", ptr %5, i32 0, i32 4
  %9 = load i32, ptr %8, align 8, !tbaa !44
  %10 = add nsw i32 %7, %9
  store i32 %10, ptr %3, align 4, !tbaa !14
  call void @llvm.lifetime.start.p0(i64 4, ptr %4) #14
  %11 = getelementptr inbounds nuw %"class.icu_77::number::impl::DecimalQuantity", ptr %5, i32 0, i32 10
  %12 = load i32, ptr %11, align 4, !tbaa !34
  %13 = load i32, ptr %3, align 4, !tbaa !14
  %14 = icmp sgt i32 %12, %13
  br i1 %14, label %15, label %18

15:                                               ; preds = %1
  %16 = getelementptr inbounds nuw %"class.icu_77::number::impl::DecimalQuantity", ptr %5, i32 0, i32 10
  %17 = load i32, ptr %16, align 4, !tbaa !34
  br label %20

18:                                               ; preds = %1
  %19 = load i32, ptr %3, align 4, !tbaa !14
  br label %20

20:                                               ; preds = %18, %15
  %21 = phi i32 [ %17, %15 ], [ %19, %18 ]
  store i32 %21, ptr %4, align 4, !tbaa !14
  %22 = load i32, ptr %4, align 4, !tbaa !14
  %23 = sub nsw i32 %22, 1
  call void @llvm.lifetime.end.p0(i64 4, ptr %4) #14
  call void @llvm.lifetime.end.p0(i64 4, ptr %3) #14
  ret i32 %23
}

; Function Attrs: mustprogress uwtable
define noundef zeroext i1 @_ZNK6icu_776number4impl15DecimalQuantityeqERKS2_(ptr noundef nonnull align 8 dereferenceable(66) %0, ptr noundef nonnull align 8 dereferenceable(66) %1) #1 align 2 {
  %3 = alloca i1, align 1
  %4 = alloca ptr, align 8
  %5 = alloca ptr, align 8
  %6 = alloca i8, align 1
  %7 = alloca i32, align 4
  %8 = alloca i32, align 4
  store ptr %0, ptr %4, align 8, !tbaa !25
  store ptr %1, ptr %5, align 8, !tbaa !25
  %9 = load ptr, ptr %4, align 8
  call void @llvm.lifetime.start.p0(i64 1, ptr %6) #14
  %10 = getelementptr inbounds nuw %"class.icu_77::number::impl::DecimalQuantity", ptr %9, i32 0, i32 3
  %11 = load i32, ptr %10, align 4, !tbaa !43
  %12 = load ptr, ptr %5, align 8, !tbaa !25
  %13 = getelementptr inbounds nuw %"class.icu_77::number::impl::DecimalQuantity", ptr %12, i32 0, i32 3
  %14 = load i32, ptr %13, align 4, !tbaa !43
  %15 = icmp eq i32 %11, %14
  br i1 %15, label %16, label %55

16:                                               ; preds = %2
  %17 = getelementptr inbounds nuw %"class.icu_77::number::impl::DecimalQuantity", ptr %9, i32 0, i32 4
  %18 = load i32, ptr %17, align 8, !tbaa !44
  %19 = load ptr, ptr %5, align 8, !tbaa !25
  %20 = getelementptr inbounds nuw %"class.icu_77::number::impl::DecimalQuantity", ptr %19, i32 0, i32 4
  %21 = load i32, ptr %20, align 8, !tbaa !44
  %22 = icmp eq i32 %18, %21
  br i1 %22, label %23, label %55

23:                                               ; preds = %16
  %24 = getelementptr inbounds nuw %"class.icu_77::number::impl::DecimalQuantity", ptr %9, i32 0, i32 5
  %25 = load i8, ptr %24, align 4, !tbaa !39
  %26 = sext i8 %25 to i32
  %27 = load ptr, ptr %5, align 8, !tbaa !25
  %28 = getelementptr inbounds nuw %"class.icu_77::number::impl::DecimalQuantity", ptr %27, i32 0, i32 5
  %29 = load i8, ptr %28, align 4, !tbaa !39
  %30 = sext i8 %29 to i32
  %31 = icmp eq i32 %26, %30
  br i1 %31, label %32, label %55

32:                                               ; preds = %23
  %33 = getelementptr inbounds nuw %"class.icu_77::number::impl::DecimalQuantity", ptr %9, i32 0, i32 10
  %34 = load i32, ptr %33, align 4, !tbaa !34
  %35 = load ptr, ptr %5, align 8, !tbaa !25
  %36 = getelementptr inbounds nuw %"class.icu_77::number::impl::DecimalQuantity", ptr %35, i32 0, i32 10
  %37 = load i32, ptr %36, align 4, !tbaa !34
  %38 = icmp eq i32 %34, %37
  br i1 %38, label %39, label %55

39:                                               ; preds = %32
  %40 = getelementptr inbounds nuw %"class.icu_77::number::impl::DecimalQuantity", ptr %9, i32 0, i32 11
  %41 = load i32, ptr %40, align 8, !tbaa !35
  %42 = load ptr, ptr %5, align 8, !tbaa !25
  %43 = getelementptr inbounds nuw %"class.icu_77::number::impl::DecimalQuantity", ptr %42, i32 0, i32 11
  %44 = load i32, ptr %43, align 8, !tbaa !35
  %45 = icmp eq i32 %41, %44
  br i1 %45, label %46, label %55

46:                                               ; preds = %39
  %47 = getelementptr inbounds nuw %"class.icu_77::number::impl::DecimalQuantity", ptr %9, i32 0, i32 6
  %48 = load i8, ptr %47, align 1, !tbaa !45
  %49 = sext i8 %48 to i32
  %50 = load ptr, ptr %5, align 8, !tbaa !25
  %51 = getelementptr inbounds nuw %"class.icu_77::number::impl::DecimalQuantity", ptr %50, i32 0, i32 6
  %52 = load i8, ptr %51, align 1, !tbaa !45
  %53 = sext i8 %52 to i32
  %54 = icmp eq i32 %49, %53
  br label %55

55:                                               ; preds = %46, %39, %32, %23, %16, %2
  %56 = phi i1 [ false, %39 ], [ false, %32 ], [ false, %23 ], [ false, %16 ], [ false, %2 ], [ %54, %46 ]
  %57 = zext i1 %56 to i8
  store i8 %57, ptr %6, align 1, !tbaa !58
  %58 = load i8, ptr %6, align 1, !tbaa !58, !range !40, !noundef !41
  %59 = trunc i8 %58 to i1
  br i1 %59, label %61, label %60

60:                                               ; preds = %55
  store i1 false, ptr %3, align 1
  store i32 1, ptr %7, align 4
  br label %110

61:                                               ; preds = %55
  %62 = getelementptr inbounds nuw %"class.icu_77::number::impl::DecimalQuantity", ptr %9, i32 0, i32 4
  %63 = load i32, ptr %62, align 8, !tbaa !44
  %64 = icmp eq i32 %63, 0
  br i1 %64, label %65, label %66

65:                                               ; preds = %61
  store i1 true, ptr %3, align 1
  store i32 1, ptr %7, align 4
  br label %110

66:                                               ; preds = %61
  %67 = getelementptr inbounds nuw %"class.icu_77::number::impl::DecimalQuantity", ptr %9, i32 0, i32 6
  %68 = load i8, ptr %67, align 1, !tbaa !45
  %69 = icmp ne i8 %68, 0
  br i1 %69, label %70, label %86

70:                                               ; preds = %66
  %71 = getelementptr inbounds nuw %"class.icu_77::number::impl::DecimalQuantity", ptr %9, i32 0, i32 8
  %72 = load double, ptr %71, align 8, !tbaa !46
  %73 = load ptr, ptr %5, align 8, !tbaa !25
  %74 = getelementptr inbounds nuw %"class.icu_77::number::impl::DecimalQuantity", ptr %73, i32 0, i32 8
  %75 = load double, ptr %74, align 8, !tbaa !46
  %76 = fcmp oeq double %72, %75
  br i1 %76, label %77, label %84

77:                                               ; preds = %70
  %78 = getelementptr inbounds nuw %"class.icu_77::number::impl::DecimalQuantity", ptr %9, i32 0, i32 9
  %79 = load i32, ptr %78, align 8, !tbaa !47
  %80 = load ptr, ptr %5, align 8, !tbaa !25
  %81 = getelementptr inbounds nuw %"class.icu_77::number::impl::DecimalQuantity", ptr %80, i32 0, i32 9
  %82 = load i32, ptr %81, align 8, !tbaa !47
  %83 = icmp eq i32 %79, %82
  br label %84

84:                                               ; preds = %77, %70
  %85 = phi i1 [ false, %70 ], [ %83, %77 ]
  store i1 %85, ptr %3, align 1
  store i32 1, ptr %7, align 4
  br label %110

86:                                               ; preds = %66
  call void @llvm.lifetime.start.p0(i64 4, ptr %8) #14
  %87 = call noundef i32 @_ZNK6icu_776number4impl15DecimalQuantity24getUpperDisplayMagnitudeEv(ptr noundef nonnull align 8 dereferenceable(66) %9)
  store i32 %87, ptr %8, align 4, !tbaa !14
  br label %88

88:                                               ; preds = %104, %86
  %89 = load i32, ptr %8, align 4, !tbaa !14
  %90 = call noundef i32 @_ZNK6icu_776number4impl15DecimalQuantity24getLowerDisplayMagnitudeEv(ptr noundef nonnull align 8 dereferenceable(66) %9)
  %91 = icmp sge i32 %89, %90
  br i1 %91, label %93, label %92

92:                                               ; preds = %88
  store i32 2, ptr %7, align 4
  br label %107

93:                                               ; preds = %88
  %94 = load i32, ptr %8, align 4, !tbaa !14
  %95 = call noundef signext i8 @_ZNK6icu_776number4impl15DecimalQuantity8getDigitEi(ptr noundef nonnull align 8 dereferenceable(66) %9, i32 noundef %94)
  %96 = sext i8 %95 to i32
  %97 = load ptr, ptr %5, align 8, !tbaa !25
  %98 = load i32, ptr %8, align 4, !tbaa !14
  %99 = call noundef signext i8 @_ZNK6icu_776number4impl15DecimalQuantity8getDigitEi(ptr noundef nonnull align 8 dereferenceable(66) %97, i32 noundef %98)
  %100 = sext i8 %99 to i32
  %101 = icmp ne i32 %96, %100
  br i1 %101, label %102, label %103

102:                                              ; preds = %93
  store i1 false, ptr %3, align 1
  store i32 1, ptr %7, align 4
  br label %107

103:                                              ; preds = %93
  br label %104

104:                                              ; preds = %103
  %105 = load i32, ptr %8, align 4, !tbaa !14
  %106 = add nsw i32 %105, -1
  store i32 %106, ptr %8, align 4, !tbaa !14
  br label %88, !llvm.loop !135

107:                                              ; preds = %102, %92
  call void @llvm.lifetime.end.p0(i64 4, ptr %8) #14
  %108 = load i32, ptr %7, align 4
  switch i32 %108, label %110 [
    i32 2, label %109
  ]

109:                                              ; preds = %107
  store i1 true, ptr %3, align 1
  store i32 1, ptr %7, align 4
  br label %110

110:                                              ; preds = %109, %107, %84, %65, %60
  call void @llvm.lifetime.end.p0(i64 1, ptr %6) #14
  %111 = load i1, ptr %3, align 1
  ret i1 %111
}