; Function Attrs: mustprogress nofree norecurse nosync nounwind willreturn memory(read, inaccessiblemem: none) uwtable
define noundef zeroext i1 @_ZNK6icu_776number4impl15DecimalQuantityeqERKS2_(ptr noundef nonnull readonly align 8 captures(none) dereferenceable(66) %0, ptr noundef nonnull readonly align 8 captures(none) dereferenceable(66) %1) local_unnamed_addr #18 align 2 {
  %3 = getelementptr inbounds nuw i8, ptr %0, i64 12
  %4 = load i32, ptr %3, align 4, !tbaa !27
  %5 = getelementptr inbounds nuw i8, ptr %1, i64 12
  %6 = load i32, ptr %5, align 4, !tbaa !27
  %7 = icmp eq i32 %4, %6
  br i1 %7, label %8, label %.critedge

8:                                                ; preds = %2
  %9 = getelementptr inbounds nuw i8, ptr %0, i64 16
  %10 = load i32, ptr %9, align 8, !tbaa !28
  %11 = getelementptr inbounds nuw i8, ptr %1, i64 16
  %12 = load i32, ptr %11, align 8, !tbaa !28
  %13 = icmp eq i32 %10, %12
  br i1 %13, label %14, label %.critedge

14:                                               ; preds = %8
  %15 = getelementptr inbounds nuw i8, ptr %0, i64 20
  %16 = load i8, ptr %15, align 4, !tbaa !35
  %17 = getelementptr inbounds nuw i8, ptr %1, i64 20
  %18 = load i8, ptr %17, align 4, !tbaa !35
  %19 = icmp eq i8 %16, %18
  br i1 %19, label %20, label %.critedge

20:                                               ; preds = %14
  %21 = getelementptr inbounds nuw i8, ptr %0, i64 36
  %22 = load i32, ptr %21, align 4, !tbaa !33
  %23 = getelementptr inbounds nuw i8, ptr %1, i64 36
  %24 = load i32, ptr %23, align 4, !tbaa !33
  %25 = icmp eq i32 %22, %24
  br i1 %25, label %26, label %.critedge

26:                                               ; preds = %20
  %27 = getelementptr inbounds nuw i8, ptr %0, i64 40
  %28 = load i32, ptr %27, align 8, !tbaa !34
  %29 = getelementptr inbounds nuw i8, ptr %1, i64 40
  %30 = load i32, ptr %29, align 8, !tbaa !34
  %31 = icmp eq i32 %28, %30
  br i1 %31, label %32, label %.critedge

32:                                               ; preds = %26
  %33 = getelementptr inbounds nuw i8, ptr %0, i64 21
  %34 = load i8, ptr %33, align 1, !tbaa !29
  %35 = getelementptr inbounds nuw i8, ptr %1, i64 21
  %36 = load i8, ptr %35, align 1, !tbaa !29
  %37 = icmp eq i8 %34, %36
  br i1 %37, label %38, label %.critedge

38:                                               ; preds = %32
  %39 = icmp eq i32 %10, 0
  br i1 %39, label %.critedge, label %40

40:                                               ; preds = %38
  %.not = icmp eq i8 %34, 0
  br i1 %.not, label %53, label %41

41:                                               ; preds = %40
  %42 = getelementptr inbounds nuw i8, ptr %0, i64 24
  %43 = load double, ptr %42, align 8, !tbaa !30
  %44 = getelementptr inbounds nuw i8, ptr %1, i64 24
  %45 = load double, ptr %44, align 8, !tbaa !30
  %46 = fcmp oeq double %43, %45
  %47 = getelementptr inbounds nuw i8, ptr %0, i64 32
  %48 = load i32, ptr %47, align 8
  %49 = getelementptr inbounds nuw i8, ptr %1, i64 32
  %50 = load i32, ptr %49, align 8
  %51 = icmp eq i32 %48, %50
  %52 = select i1 %46, i1 %51, i1 false
  br label %.critedge

53:                                               ; preds = %40
  %54 = add nsw i32 %10, %4
  %..i = tail call i32 @llvm.smax.i32(i32 %22, i32 %54)
  %..i20 = tail call noundef i32 @llvm.smin.i32(i32 %28, i32 %4)
  %55 = getelementptr inbounds nuw i8, ptr %0, i64 64
  %56 = load i8, ptr %55, align 8, !range !24
  %.fr42 = freeze i8 %56
  %57 = trunc i8 %.fr42 to i1
  %58 = getelementptr inbounds nuw i8, ptr %0, i64 48
  %59 = load i64, ptr %58, align 8
  %.cast = inttoptr i64 %59 to ptr
  %60 = getelementptr inbounds nuw i8, ptr %1, i64 64
  %61 = load i8, ptr %60, align 8, !range !24
  %.fr = freeze i8 %61
  %62 = trunc i8 %.fr to i1
  %63 = getelementptr inbounds nuw i8, ptr %1, i64 48
  %64 = load i64, ptr %63, align 8
  %.cast41 = inttoptr i64 %64 to ptr
  br i1 %57, label %.split.us, label %.split

.split.us:                                        ; preds = %53
  br i1 %62, label %.split.us.split.us, label %.split.us.split

.split.us.split.us:                               ; preds = %.split.us, %_ZNK6icu_776number4impl15DecimalQuantity8getDigitEi.exit25.us.us
  %.0.in.us.us = phi i32 [ %.0.us.us, %_ZNK6icu_776number4impl15DecimalQuantity8getDigitEi.exit25.us.us ], [ %..i, %.split.us ]
  %.0.us.us = add nsw i32 %.0.in.us.us, -1
  %.not18.not.us.us.not.not = icmp sle i32 %.0.in.us.us, %..i20
  br i1 %.not18.not.us.us.not.not, label %.critedge, label %65

65:                                               ; preds = %.split.us.split.us
  %66 = sub nsw i32 %.0.us.us, %4
  %67 = icmp sgt i32 %66, -1
  %.not.i.i.us.us = icmp slt i32 %66, %10
  %or.cond10.i.i.us.us = and i1 %67, %.not.i.i.us.us
  br i1 %or.cond10.i.i.us.us, label %68, label %_ZNK6icu_776number4impl15DecimalQuantity8getDigitEi.exit25.us.us

68:                                               ; preds = %65
  %69 = zext nneg i32 %66 to i64
  %70 = getelementptr inbounds nuw i8, ptr %.cast, i64 %69
  %71 = load i8, ptr %70, align 1, !tbaa !26
  %72 = zext nneg i32 %66 to i64
  %73 = getelementptr inbounds nuw i8, ptr %.cast41, i64 %72
  %74 = load i8, ptr %73, align 1, !tbaa !26
  br label %_ZNK6icu_776number4impl15DecimalQuantity8getDigitEi.exit25.us.us

_ZNK6icu_776number4impl15DecimalQuantity8getDigitEi.exit25.us.us: ; preds = %65, %68
  %.0.i.i.us.us50 = phi i8 [ %71, %68 ], [ 0, %65 ]
  %.0.i.i22.us.us = phi i8 [ %74, %68 ], [ 0, %65 ]
  %.not19.us.us = icmp eq i8 %.0.i.i.us.us50, %.0.i.i22.us.us
  br i1 %.not19.us.us, label %.split.us.split.us, label %.critedge, !llvm.loop !97

.split.us.split:                                  ; preds = %.split.us, %_ZNK6icu_776number4impl15DecimalQuantity8getDigitEi.exit.us
  %.0.in.us = phi i32 [ %.0.us, %_ZNK6icu_776number4impl15DecimalQuantity8getDigitEi.exit.us ], [ %..i, %.split.us ]
  %.0.us = add nsw i32 %.0.in.us, -1
  %.not18.not.us.not.not = icmp sle i32 %.0.in.us, %..i20
  br i1 %.not18.not.us.not.not, label %.critedge, label %75

75:                                               ; preds = %.split.us.split
  %76 = sub nsw i32 %.0.us, %4
  %77 = icmp sgt i32 %76, -1
  %.not.i.i.us = icmp slt i32 %76, %10
  %or.cond10.i.i.us = and i1 %77, %.not.i.i.us
  br i1 %or.cond10.i.i.us, label %78, label %_ZNK6icu_776number4impl15DecimalQuantity8getDigitEi.exit.us

78:                                               ; preds = %75
  %79 = zext nneg i32 %76 to i64
  %80 = getelementptr inbounds nuw i8, ptr %.cast, i64 %79
  %81 = load i8, ptr %80, align 1, !tbaa !26
  br label %_ZNK6icu_776number4impl15DecimalQuantity8getDigitEi.exit.us

_ZNK6icu_776number4impl15DecimalQuantity8getDigitEi.exit.us: ; preds = %78, %75
  %.0.i.i.us = phi i8 [ %81, %78 ], [ 0, %75 ]
  %or.cond.i.i21.us = icmp ugt i32 %76, 15
  %82 = shl nuw nsw i32 %76, 2
  %83 = zext nneg i32 %82 to i64
  %84 = lshr i64 %64, %83
  %85 = trunc i64 %84 to i8
  %86 = and i8 %85, 15
  %.0.i.i22.us = select i1 %or.cond.i.i21.us, i8 0, i8 %86
  %.not19.us = icmp eq i8 %.0.i.i.us, %.0.i.i22.us
  br i1 %.not19.us, label %.split.us.split, label %.critedge, !llvm.loop !97

.split:                                           ; preds = %53
  br i1 %62, label %.split.split.us, label %.split.split.preheader

.split.split.preheader:                           ; preds = %.split
  %87 = xor i64 %59, %64
  br label %.split.split

.split.split.us:                                  ; preds = %.split, %_ZNK6icu_776number4impl15DecimalQuantity8getDigitEi.exit25.us33
  %.0.in.us26 = phi i32 [ %.0.us27, %_ZNK6icu_776number4impl15DecimalQuantity8getDigitEi.exit25.us33 ], [ %..i, %.split ]
  %.0.us27 = add nsw i32 %.0.in.us26, -1
  %.not18.not.us28.not.not = icmp sle i32 %.0.in.us26, %..i20
  br i1 %.not18.not.us28.not.not, label %.critedge, label %_ZNK6icu_776number4impl15DecimalQuantity8getDigitEi.exit.us29

_ZNK6icu_776number4impl15DecimalQuantity8getDigitEi.exit.us29: ; preds = %.split.split.us
  %88 = sub nsw i32 %.0.us27, %4
  %or.cond.i.i.us = icmp ugt i32 %88, 15
  %89 = shl nuw nsw i32 %88, 2
  %90 = zext nneg i32 %89 to i64
  %91 = lshr i64 %59, %90
  %92 = trunc i64 %91 to i8
  %93 = and i8 %92, 15
  %.0.i.i.us30 = select i1 %or.cond.i.i.us, i8 0, i8 %93
  %94 = icmp sgt i32 %88, -1
  %.not.i.i23.us31 = icmp slt i32 %88, %10
  %or.cond10.i.i24.us32 = and i1 %94, %.not.i.i23.us31
  br i1 %or.cond10.i.i24.us32, label %95, label %_ZNK6icu_776number4impl15DecimalQuantity8getDigitEi.exit25.us33

95:                                               ; preds = %_ZNK6icu_776number4impl15DecimalQuantity8getDigitEi.exit.us29
  %96 = zext nneg i32 %88 to i64
  %97 = getelementptr inbounds nuw i8, ptr %.cast41, i64 %96
  %98 = load i8, ptr %97, align 1, !tbaa !26
  br label %_ZNK6icu_776number4impl15DecimalQuantity8getDigitEi.exit25.us33

_ZNK6icu_776number4impl15DecimalQuantity8getDigitEi.exit25.us33: ; preds = %95, %_ZNK6icu_776number4impl15DecimalQuantity8getDigitEi.exit.us29
  %.0.i.i22.us34 = phi i8 [ %98, %95 ], [ 0, %_ZNK6icu_776number4impl15DecimalQuantity8getDigitEi.exit.us29 ]
  %.not19.us35 = icmp eq i8 %.0.i.i.us30, %.0.i.i22.us34
  br i1 %.not19.us35, label %.split.split.us, label %.critedge, !llvm.loop !97

.split.split:                                     ; preds = %.split.split.preheader, %_ZNK6icu_776number4impl15DecimalQuantity8getDigitEi.exit
  %.0.in = phi i32 [ %.0, %_ZNK6icu_776number4impl15DecimalQuantity8getDigitEi.exit ], [ %..i, %.split.split.preheader ]
  %.not18.not.not.not = icmp sle i32 %.0.in, %..i20
  br i1 %.not18.not.not.not, label %.critedge, label %_ZNK6icu_776number4impl15DecimalQuantity8getDigitEi.exit

_ZNK6icu_776number4impl15DecimalQuantity8getDigitEi.exit: ; preds = %.split.split
  %.0 = add nsw i32 %.0.in, -1
  %99 = sub nsw i32 %.0, %4
  %or.cond.i.i = icmp ugt i32 %99, 15
  %100 = shl nuw nsw i32 %99, 2
  %101 = zext nneg i32 %100 to i64
  %102 = shl i64 15, %101
  %103 = and i64 %87, %102
  %104 = icmp eq i64 %103, 0
  %.not19 = select i1 %or.cond.i.i, i1 true, i1 %104
  br i1 %.not19, label %.split.split, label %.critedge, !llvm.loop !97

.critedge:                                        ; preds = %.split.split, %_ZNK6icu_776number4impl15DecimalQuantity8getDigitEi.exit, %.split.split.us, %_ZNK6icu_776number4impl15DecimalQuantity8getDigitEi.exit25.us33, %.split.us.split, %_ZNK6icu_776number4impl15DecimalQuantity8getDigitEi.exit.us, %.split.us.split.us, %_ZNK6icu_776number4impl15DecimalQuantity8getDigitEi.exit25.us.us, %26, %20, %14, %8, %2, %38, %32, %41
  %.017 = phi i1 [ %52, %41 ], [ false, %32 ], [ true, %38 ], [ false, %2 ], [ false, %8 ], [ false, %14 ], [ false, %20 ], [ false, %26 ], [ %.not18.not.us.us.not.not, %_ZNK6icu_776number4impl15DecimalQuantity8getDigitEi.exit25.us.us ], [ %.not18.not.us.us.not.not, %.split.us.split.us ], [ %.not18.not.us.not.not, %_ZNK6icu_776number4impl15DecimalQuantity8getDigitEi.exit.us ], [ %.not18.not.us.not.not, %.split.us.split ], [ %.not18.not.us28.not.not, %_ZNK6icu_776number4impl15DecimalQuantity8getDigitEi.exit25.us33 ], [ %.not18.not.us28.not.not, %.split.split.us ], [ %.not18.not.not.not, %_ZNK6icu_776number4impl15DecimalQuantity8getDigitEi.exit ], [ %.not18.not.not.not, %.split.split ]
  ret i1 %.017
}